
;CodeVisionAVR C Compiler V3.12 Advanced
;(C) Copyright 1998-2014 Pavel Haiduc, HP InfoTech s.r.l.
;http://www.hpinfotech.com

;Build configuration    : Debug
;Chip type              : ATmega16
;Program type           : Application
;Clock frequency        : 8/000000 MHz
;Memory model           : Small
;Optimize for           : Size
;(s)printf features     : int, width
;(s)scanf features      : int, width
;External RAM size      : 0
;Data Stack size        : 256 byte(s)
;Heap size              : 0 byte(s)
;Promote 'char' to 'int': Yes
;'char' is unsigned     : Yes
;8 bit enums            : Yes
;Global 'const' stored in FLASH: Yes
;Enhanced function parameter passing: Yes
;Enhanced core instructions: On
;Automatic register allocation for global variables: On
;Smart register allocation: On

	#define _MODEL_SMALL_

	#pragma AVRPART ADMIN PART_NAME ATmega16
	#pragma AVRPART MEMORY PROG_FLASH 16384
	#pragma AVRPART MEMORY EEPROM 512
	#pragma AVRPART MEMORY INT_SRAM SIZE 1024
	#pragma AVRPART MEMORY INT_SRAM START_ADDR 0x60

	#define CALL_SUPPORTED 1

	.LISTMAC
	.EQU UDRE=0x5
	.EQU RXC=0x7
	.EQU USR=0xB
	.EQU UDR=0xC
	.EQU SPSR=0xE
	.EQU SPDR=0xF
	.EQU EERE=0x0
	.EQU EEWE=0x1
	.EQU EEMWE=0x2
	.EQU EECR=0x1C
	.EQU EEDR=0x1D
	.EQU EEARL=0x1E
	.EQU EEARH=0x1F
	.EQU WDTCR=0x21
	.EQU MCUCR=0x35
	.EQU GICR=0x3B
	.EQU SPL=0x3D
	.EQU SPH=0x3E
	.EQU SREG=0x3F

	.DEF R0X0=R0
	.DEF R0X1=R1
	.DEF R0X2=R2
	.DEF R0X3=R3
	.DEF R0X4=R4
	.DEF R0X5=R5
	.DEF R0X6=R6
	.DEF R0X7=R7
	.DEF R0X8=R8
	.DEF R0X9=R9
	.DEF R0XA=R10
	.DEF R0XB=R11
	.DEF R0XC=R12
	.DEF R0XD=R13
	.DEF R0XE=R14
	.DEF R0XF=R15
	.DEF R0X10=R16
	.DEF R0X11=R17
	.DEF R0X12=R18
	.DEF R0X13=R19
	.DEF R0X14=R20
	.DEF R0X15=R21
	.DEF R0X16=R22
	.DEF R0X17=R23
	.DEF R0X18=R24
	.DEF R0X19=R25
	.DEF R0X1A=R26
	.DEF R0X1B=R27
	.DEF R0X1C=R28
	.DEF R0X1D=R29
	.DEF R0X1E=R30
	.DEF R0X1F=R31

	.EQU __SRAM_START=0x0060
	.EQU __SRAM_END=0x045F
	.EQU __DSTACK_SIZE=0x0100
	.EQU __HEAP_SIZE=0x0000
	.EQU __CLEAR_SRAM_SIZE=__SRAM_END-__SRAM_START+1

	.MACRO __CPD1N
	CPI  R30,LOW(@0)
	LDI  R26,HIGH(@0)
	CPC  R31,R26
	LDI  R26,BYTE3(@0)
	CPC  R22,R26
	LDI  R26,BYTE4(@0)
	CPC  R23,R26
	.ENDM

	.MACRO __CPD2N
	CPI  R26,LOW(@0)
	LDI  R30,HIGH(@0)
	CPC  R27,R30
	LDI  R30,BYTE3(@0)
	CPC  R24,R30
	LDI  R30,BYTE4(@0)
	CPC  R25,R30
	.ENDM

	.MACRO __CPWRR
	CP   R@0,R@2
	CPC  R@1,R@3
	.ENDM

	.MACRO __CPWRN
	CPI  R@0,LOW(@2)
	LDI  R30,HIGH(@2)
	CPC  R@1,R30
	.ENDM

	.MACRO __ADDB1MN
	SUBI R30,LOW(-@0-(@1))
	.ENDM

	.MACRO __ADDB2MN
	SUBI R26,LOW(-@0-(@1))
	.ENDM

	.MACRO __ADDW1MN
	SUBI R30,LOW(-@0-(@1))
	SBCI R31,HIGH(-@0-(@1))
	.ENDM

	.MACRO __ADDW2MN
	SUBI R26,LOW(-@0-(@1))
	SBCI R27,HIGH(-@0-(@1))
	.ENDM

	.MACRO __ADDW1FN
	SUBI R30,LOW(-2*@0-(@1))
	SBCI R31,HIGH(-2*@0-(@1))
	.ENDM

	.MACRO __ADDD1FN
	SUBI R30,LOW(-2*@0-(@1))
	SBCI R31,HIGH(-2*@0-(@1))
	SBCI R22,BYTE3(-2*@0-(@1))
	.ENDM

	.MACRO __ADDD1N
	SUBI R30,LOW(-@0)
	SBCI R31,HIGH(-@0)
	SBCI R22,BYTE3(-@0)
	SBCI R23,BYTE4(-@0)
	.ENDM

	.MACRO __ADDD2N
	SUBI R26,LOW(-@0)
	SBCI R27,HIGH(-@0)
	SBCI R24,BYTE3(-@0)
	SBCI R25,BYTE4(-@0)
	.ENDM

	.MACRO __SUBD1N
	SUBI R30,LOW(@0)
	SBCI R31,HIGH(@0)
	SBCI R22,BYTE3(@0)
	SBCI R23,BYTE4(@0)
	.ENDM

	.MACRO __SUBD2N
	SUBI R26,LOW(@0)
	SBCI R27,HIGH(@0)
	SBCI R24,BYTE3(@0)
	SBCI R25,BYTE4(@0)
	.ENDM

	.MACRO __ANDBMNN
	LDS  R30,@0+(@1)
	ANDI R30,LOW(@2)
	STS  @0+(@1),R30
	.ENDM

	.MACRO __ANDWMNN
	LDS  R30,@0+(@1)
	ANDI R30,LOW(@2)
	STS  @0+(@1),R30
	LDS  R30,@0+(@1)+1
	ANDI R30,HIGH(@2)
	STS  @0+(@1)+1,R30
	.ENDM

	.MACRO __ANDD1N
	ANDI R30,LOW(@0)
	ANDI R31,HIGH(@0)
	ANDI R22,BYTE3(@0)
	ANDI R23,BYTE4(@0)
	.ENDM

	.MACRO __ANDD2N
	ANDI R26,LOW(@0)
	ANDI R27,HIGH(@0)
	ANDI R24,BYTE3(@0)
	ANDI R25,BYTE4(@0)
	.ENDM

	.MACRO __ORBMNN
	LDS  R30,@0+(@1)
	ORI  R30,LOW(@2)
	STS  @0+(@1),R30
	.ENDM

	.MACRO __ORWMNN
	LDS  R30,@0+(@1)
	ORI  R30,LOW(@2)
	STS  @0+(@1),R30
	LDS  R30,@0+(@1)+1
	ORI  R30,HIGH(@2)
	STS  @0+(@1)+1,R30
	.ENDM

	.MACRO __ORD1N
	ORI  R30,LOW(@0)
	ORI  R31,HIGH(@0)
	ORI  R22,BYTE3(@0)
	ORI  R23,BYTE4(@0)
	.ENDM

	.MACRO __ORD2N
	ORI  R26,LOW(@0)
	ORI  R27,HIGH(@0)
	ORI  R24,BYTE3(@0)
	ORI  R25,BYTE4(@0)
	.ENDM

	.MACRO __DELAY_USB
	LDI  R24,LOW(@0)
__DELAY_USB_LOOP:
	DEC  R24
	BRNE __DELAY_USB_LOOP
	.ENDM

	.MACRO __DELAY_USW
	LDI  R24,LOW(@0)
	LDI  R25,HIGH(@0)
__DELAY_USW_LOOP:
	SBIW R24,1
	BRNE __DELAY_USW_LOOP
	.ENDM

	.MACRO __GETD1S
	LDD  R30,Y+@0
	LDD  R31,Y+@0+1
	LDD  R22,Y+@0+2
	LDD  R23,Y+@0+3
	.ENDM

	.MACRO __GETD2S
	LDD  R26,Y+@0
	LDD  R27,Y+@0+1
	LDD  R24,Y+@0+2
	LDD  R25,Y+@0+3
	.ENDM

	.MACRO __PUTD1S
	STD  Y+@0,R30
	STD  Y+@0+1,R31
	STD  Y+@0+2,R22
	STD  Y+@0+3,R23
	.ENDM

	.MACRO __PUTD2S
	STD  Y+@0,R26
	STD  Y+@0+1,R27
	STD  Y+@0+2,R24
	STD  Y+@0+3,R25
	.ENDM

	.MACRO __PUTDZ2
	STD  Z+@0,R26
	STD  Z+@0+1,R27
	STD  Z+@0+2,R24
	STD  Z+@0+3,R25
	.ENDM

	.MACRO __CLRD1S
	STD  Y+@0,R30
	STD  Y+@0+1,R30
	STD  Y+@0+2,R30
	STD  Y+@0+3,R30
	.ENDM

	.MACRO __POINTB1MN
	LDI  R30,LOW(@0+(@1))
	.ENDM

	.MACRO __POINTW1MN
	LDI  R30,LOW(@0+(@1))
	LDI  R31,HIGH(@0+(@1))
	.ENDM

	.MACRO __POINTD1M
	LDI  R30,LOW(@0)
	LDI  R31,HIGH(@0)
	LDI  R22,BYTE3(@0)
	LDI  R23,BYTE4(@0)
	.ENDM

	.MACRO __POINTW1FN
	LDI  R30,LOW(2*@0+(@1))
	LDI  R31,HIGH(2*@0+(@1))
	.ENDM

	.MACRO __POINTD1FN
	LDI  R30,LOW(2*@0+(@1))
	LDI  R31,HIGH(2*@0+(@1))
	LDI  R22,BYTE3(2*@0+(@1))
	LDI  R23,BYTE4(2*@0+(@1))
	.ENDM

	.MACRO __POINTB2MN
	LDI  R26,LOW(@0+(@1))
	.ENDM

	.MACRO __POINTW2MN
	LDI  R26,LOW(@0+(@1))
	LDI  R27,HIGH(@0+(@1))
	.ENDM

	.MACRO __POINTW2FN
	LDI  R26,LOW(2*@0+(@1))
	LDI  R27,HIGH(2*@0+(@1))
	.ENDM

	.MACRO __POINTD2FN
	LDI  R26,LOW(2*@0+(@1))
	LDI  R27,HIGH(2*@0+(@1))
	LDI  R24,BYTE3(2*@0+(@1))
	LDI  R25,BYTE4(2*@0+(@1))
	.ENDM

	.MACRO __POINTBRM
	LDI  R@0,LOW(@1)
	.ENDM

	.MACRO __POINTWRM
	LDI  R@0,LOW(@2)
	LDI  R@1,HIGH(@2)
	.ENDM

	.MACRO __POINTBRMN
	LDI  R@0,LOW(@1+(@2))
	.ENDM

	.MACRO __POINTWRMN
	LDI  R@0,LOW(@2+(@3))
	LDI  R@1,HIGH(@2+(@3))
	.ENDM

	.MACRO __POINTWRFN
	LDI  R@0,LOW(@2*2+(@3))
	LDI  R@1,HIGH(@2*2+(@3))
	.ENDM

	.MACRO __GETD1N
	LDI  R30,LOW(@0)
	LDI  R31,HIGH(@0)
	LDI  R22,BYTE3(@0)
	LDI  R23,BYTE4(@0)
	.ENDM

	.MACRO __GETD2N
	LDI  R26,LOW(@0)
	LDI  R27,HIGH(@0)
	LDI  R24,BYTE3(@0)
	LDI  R25,BYTE4(@0)
	.ENDM

	.MACRO __GETB1MN
	LDS  R30,@0+(@1)
	.ENDM

	.MACRO __GETB1HMN
	LDS  R31,@0+(@1)
	.ENDM

	.MACRO __GETW1MN
	LDS  R30,@0+(@1)
	LDS  R31,@0+(@1)+1
	.ENDM

	.MACRO __GETD1MN
	LDS  R30,@0+(@1)
	LDS  R31,@0+(@1)+1
	LDS  R22,@0+(@1)+2
	LDS  R23,@0+(@1)+3
	.ENDM

	.MACRO __GETBRMN
	LDS  R@0,@1+(@2)
	.ENDM

	.MACRO __GETWRMN
	LDS  R@0,@2+(@3)
	LDS  R@1,@2+(@3)+1
	.ENDM

	.MACRO __GETWRZ
	LDD  R@0,Z+@2
	LDD  R@1,Z+@2+1
	.ENDM

	.MACRO __GETD2Z
	LDD  R26,Z+@0
	LDD  R27,Z+@0+1
	LDD  R24,Z+@0+2
	LDD  R25,Z+@0+3
	.ENDM

	.MACRO __GETB2MN
	LDS  R26,@0+(@1)
	.ENDM

	.MACRO __GETW2MN
	LDS  R26,@0+(@1)
	LDS  R27,@0+(@1)+1
	.ENDM

	.MACRO __GETD2MN
	LDS  R26,@0+(@1)
	LDS  R27,@0+(@1)+1
	LDS  R24,@0+(@1)+2
	LDS  R25,@0+(@1)+3
	.ENDM

	.MACRO __PUTB1MN
	STS  @0+(@1),R30
	.ENDM

	.MACRO __PUTW1MN
	STS  @0+(@1),R30
	STS  @0+(@1)+1,R31
	.ENDM

	.MACRO __PUTD1MN
	STS  @0+(@1),R30
	STS  @0+(@1)+1,R31
	STS  @0+(@1)+2,R22
	STS  @0+(@1)+3,R23
	.ENDM

	.MACRO __PUTB1EN
	LDI  R26,LOW(@0+(@1))
	LDI  R27,HIGH(@0+(@1))
	CALL __EEPROMWRB
	.ENDM

	.MACRO __PUTW1EN
	LDI  R26,LOW(@0+(@1))
	LDI  R27,HIGH(@0+(@1))
	CALL __EEPROMWRW
	.ENDM

	.MACRO __PUTD1EN
	LDI  R26,LOW(@0+(@1))
	LDI  R27,HIGH(@0+(@1))
	CALL __EEPROMWRD
	.ENDM

	.MACRO __PUTBR0MN
	STS  @0+(@1),R0
	.ENDM

	.MACRO __PUTBMRN
	STS  @0+(@1),R@2
	.ENDM

	.MACRO __PUTWMRN
	STS  @0+(@1),R@2
	STS  @0+(@1)+1,R@3
	.ENDM

	.MACRO __PUTBZR
	STD  Z+@1,R@0
	.ENDM

	.MACRO __PUTWZR
	STD  Z+@2,R@0
	STD  Z+@2+1,R@1
	.ENDM

	.MACRO __GETW1R
	MOV  R30,R@0
	MOV  R31,R@1
	.ENDM

	.MACRO __GETW2R
	MOV  R26,R@0
	MOV  R27,R@1
	.ENDM

	.MACRO __GETWRN
	LDI  R@0,LOW(@2)
	LDI  R@1,HIGH(@2)
	.ENDM

	.MACRO __PUTW1R
	MOV  R@0,R30
	MOV  R@1,R31
	.ENDM

	.MACRO __PUTW2R
	MOV  R@0,R26
	MOV  R@1,R27
	.ENDM

	.MACRO __ADDWRN
	SUBI R@0,LOW(-@2)
	SBCI R@1,HIGH(-@2)
	.ENDM

	.MACRO __ADDWRR
	ADD  R@0,R@2
	ADC  R@1,R@3
	.ENDM

	.MACRO __SUBWRN
	SUBI R@0,LOW(@2)
	SBCI R@1,HIGH(@2)
	.ENDM

	.MACRO __SUBWRR
	SUB  R@0,R@2
	SBC  R@1,R@3
	.ENDM

	.MACRO __ANDWRN
	ANDI R@0,LOW(@2)
	ANDI R@1,HIGH(@2)
	.ENDM

	.MACRO __ANDWRR
	AND  R@0,R@2
	AND  R@1,R@3
	.ENDM

	.MACRO __ORWRN
	ORI  R@0,LOW(@2)
	ORI  R@1,HIGH(@2)
	.ENDM

	.MACRO __ORWRR
	OR   R@0,R@2
	OR   R@1,R@3
	.ENDM

	.MACRO __EORWRR
	EOR  R@0,R@2
	EOR  R@1,R@3
	.ENDM

	.MACRO __GETWRS
	LDD  R@0,Y+@2
	LDD  R@1,Y+@2+1
	.ENDM

	.MACRO __PUTBSR
	STD  Y+@1,R@0
	.ENDM

	.MACRO __PUTWSR
	STD  Y+@2,R@0
	STD  Y+@2+1,R@1
	.ENDM

	.MACRO __MOVEWRR
	MOV  R@0,R@2
	MOV  R@1,R@3
	.ENDM

	.MACRO __INWR
	IN   R@0,@2
	IN   R@1,@2+1
	.ENDM

	.MACRO __OUTWR
	OUT  @2+1,R@1
	OUT  @2,R@0
	.ENDM

	.MACRO __CALL1MN
	LDS  R30,@0+(@1)
	LDS  R31,@0+(@1)+1
	ICALL
	.ENDM

	.MACRO __CALL1FN
	LDI  R30,LOW(2*@0+(@1))
	LDI  R31,HIGH(2*@0+(@1))
	CALL __GETW1PF
	ICALL
	.ENDM

	.MACRO __CALL2EN
	PUSH R26
	PUSH R27
	LDI  R26,LOW(@0+(@1))
	LDI  R27,HIGH(@0+(@1))
	CALL __EEPROMRDW
	POP  R27
	POP  R26
	ICALL
	.ENDM

	.MACRO __CALL2EX
	SUBI R26,LOW(-@0)
	SBCI R27,HIGH(-@0)
	CALL __EEPROMRDD
	ICALL
	.ENDM

	.MACRO __GETW1STACK
	IN   R30,SPL
	IN   R31,SPH
	ADIW R30,@0+1
	LD   R0,Z+
	LD   R31,Z
	MOV  R30,R0
	.ENDM

	.MACRO __GETD1STACK
	IN   R30,SPL
	IN   R31,SPH
	ADIW R30,@0+1
	LD   R0,Z+
	LD   R1,Z+
	LD   R22,Z
	MOVW R30,R0
	.ENDM

	.MACRO __NBST
	BST  R@0,@1
	IN   R30,SREG
	LDI  R31,0x40
	EOR  R30,R31
	OUT  SREG,R30
	.ENDM


	.MACRO __PUTB1SN
	LDD  R26,Y+@0
	LDD  R27,Y+@0+1
	SUBI R26,LOW(-@1)
	SBCI R27,HIGH(-@1)
	ST   X,R30
	.ENDM

	.MACRO __PUTW1SN
	LDD  R26,Y+@0
	LDD  R27,Y+@0+1
	SUBI R26,LOW(-@1)
	SBCI R27,HIGH(-@1)
	ST   X+,R30
	ST   X,R31
	.ENDM

	.MACRO __PUTD1SN
	LDD  R26,Y+@0
	LDD  R27,Y+@0+1
	SUBI R26,LOW(-@1)
	SBCI R27,HIGH(-@1)
	CALL __PUTDP1
	.ENDM

	.MACRO __PUTB1SNS
	LDD  R26,Y+@0
	LDD  R27,Y+@0+1
	ADIW R26,@1
	ST   X,R30
	.ENDM

	.MACRO __PUTW1SNS
	LDD  R26,Y+@0
	LDD  R27,Y+@0+1
	ADIW R26,@1
	ST   X+,R30
	ST   X,R31
	.ENDM

	.MACRO __PUTD1SNS
	LDD  R26,Y+@0
	LDD  R27,Y+@0+1
	ADIW R26,@1
	CALL __PUTDP1
	.ENDM

	.MACRO __PUTB1PMN
	LDS  R26,@0
	LDS  R27,@0+1
	SUBI R26,LOW(-@1)
	SBCI R27,HIGH(-@1)
	ST   X,R30
	.ENDM

	.MACRO __PUTW1PMN
	LDS  R26,@0
	LDS  R27,@0+1
	SUBI R26,LOW(-@1)
	SBCI R27,HIGH(-@1)
	ST   X+,R30
	ST   X,R31
	.ENDM

	.MACRO __PUTD1PMN
	LDS  R26,@0
	LDS  R27,@0+1
	SUBI R26,LOW(-@1)
	SBCI R27,HIGH(-@1)
	CALL __PUTDP1
	.ENDM

	.MACRO __PUTB1PMNS
	LDS  R26,@0
	LDS  R27,@0+1
	ADIW R26,@1
	ST   X,R30
	.ENDM

	.MACRO __PUTW1PMNS
	LDS  R26,@0
	LDS  R27,@0+1
	ADIW R26,@1
	ST   X+,R30
	ST   X,R31
	.ENDM

	.MACRO __PUTD1PMNS
	LDS  R26,@0
	LDS  R27,@0+1
	ADIW R26,@1
	CALL __PUTDP1
	.ENDM

	.MACRO __PUTB1RN
	MOVW R26,R@0
	SUBI R26,LOW(-@1)
	SBCI R27,HIGH(-@1)
	ST   X,R30
	.ENDM

	.MACRO __PUTW1RN
	MOVW R26,R@0
	SUBI R26,LOW(-@1)
	SBCI R27,HIGH(-@1)
	ST   X+,R30
	ST   X,R31
	.ENDM

	.MACRO __PUTD1RN
	MOVW R26,R@0
	SUBI R26,LOW(-@1)
	SBCI R27,HIGH(-@1)
	CALL __PUTDP1
	.ENDM

	.MACRO __PUTB1RNS
	MOVW R26,R@0
	ADIW R26,@1
	ST   X,R30
	.ENDM

	.MACRO __PUTW1RNS
	MOVW R26,R@0
	ADIW R26,@1
	ST   X+,R30
	ST   X,R31
	.ENDM

	.MACRO __PUTD1RNS
	MOVW R26,R@0
	ADIW R26,@1
	CALL __PUTDP1
	.ENDM

	.MACRO __PUTB1RON
	MOV  R26,R@0
	MOV  R27,R@1
	SUBI R26,LOW(-@2)
	SBCI R27,HIGH(-@2)
	ST   X,R30
	.ENDM

	.MACRO __PUTW1RON
	MOV  R26,R@0
	MOV  R27,R@1
	SUBI R26,LOW(-@2)
	SBCI R27,HIGH(-@2)
	ST   X+,R30
	ST   X,R31
	.ENDM

	.MACRO __PUTD1RON
	MOV  R26,R@0
	MOV  R27,R@1
	SUBI R26,LOW(-@2)
	SBCI R27,HIGH(-@2)
	CALL __PUTDP1
	.ENDM

	.MACRO __PUTB1RONS
	MOV  R26,R@0
	MOV  R27,R@1
	ADIW R26,@2
	ST   X,R30
	.ENDM

	.MACRO __PUTW1RONS
	MOV  R26,R@0
	MOV  R27,R@1
	ADIW R26,@2
	ST   X+,R30
	ST   X,R31
	.ENDM

	.MACRO __PUTD1RONS
	MOV  R26,R@0
	MOV  R27,R@1
	ADIW R26,@2
	CALL __PUTDP1
	.ENDM


	.MACRO __GETB1SX
	MOVW R30,R28
	SUBI R30,LOW(-@0)
	SBCI R31,HIGH(-@0)
	LD   R30,Z
	.ENDM

	.MACRO __GETB1HSX
	MOVW R30,R28
	SUBI R30,LOW(-@0)
	SBCI R31,HIGH(-@0)
	LD   R31,Z
	.ENDM

	.MACRO __GETW1SX
	MOVW R30,R28
	SUBI R30,LOW(-@0)
	SBCI R31,HIGH(-@0)
	LD   R0,Z+
	LD   R31,Z
	MOV  R30,R0
	.ENDM

	.MACRO __GETD1SX
	MOVW R30,R28
	SUBI R30,LOW(-@0)
	SBCI R31,HIGH(-@0)
	LD   R0,Z+
	LD   R1,Z+
	LD   R22,Z+
	LD   R23,Z
	MOVW R30,R0
	.ENDM

	.MACRO __GETB2SX
	MOVW R26,R28
	SUBI R26,LOW(-@0)
	SBCI R27,HIGH(-@0)
	LD   R26,X
	.ENDM

	.MACRO __GETW2SX
	MOVW R26,R28
	SUBI R26,LOW(-@0)
	SBCI R27,HIGH(-@0)
	LD   R0,X+
	LD   R27,X
	MOV  R26,R0
	.ENDM

	.MACRO __GETD2SX
	MOVW R26,R28
	SUBI R26,LOW(-@0)
	SBCI R27,HIGH(-@0)
	LD   R0,X+
	LD   R1,X+
	LD   R24,X+
	LD   R25,X
	MOVW R26,R0
	.ENDM

	.MACRO __GETBRSX
	MOVW R30,R28
	SUBI R30,LOW(-@1)
	SBCI R31,HIGH(-@1)
	LD   R@0,Z
	.ENDM

	.MACRO __GETWRSX
	MOVW R30,R28
	SUBI R30,LOW(-@2)
	SBCI R31,HIGH(-@2)
	LD   R@0,Z+
	LD   R@1,Z
	.ENDM

	.MACRO __GETBRSX2
	MOVW R26,R28
	SUBI R26,LOW(-@1)
	SBCI R27,HIGH(-@1)
	LD   R@0,X
	.ENDM

	.MACRO __GETWRSX2
	MOVW R26,R28
	SUBI R26,LOW(-@2)
	SBCI R27,HIGH(-@2)
	LD   R@0,X+
	LD   R@1,X
	.ENDM

	.MACRO __LSLW8SX
	MOVW R30,R28
	SUBI R30,LOW(-@0)
	SBCI R31,HIGH(-@0)
	LD   R31,Z
	CLR  R30
	.ENDM

	.MACRO __PUTB1SX
	MOVW R26,R28
	SUBI R26,LOW(-@0)
	SBCI R27,HIGH(-@0)
	ST   X,R30
	.ENDM

	.MACRO __PUTW1SX
	MOVW R26,R28
	SUBI R26,LOW(-@0)
	SBCI R27,HIGH(-@0)
	ST   X+,R30
	ST   X,R31
	.ENDM

	.MACRO __PUTD1SX
	MOVW R26,R28
	SUBI R26,LOW(-@0)
	SBCI R27,HIGH(-@0)
	ST   X+,R30
	ST   X+,R31
	ST   X+,R22
	ST   X,R23
	.ENDM

	.MACRO __CLRW1SX
	MOVW R26,R28
	SUBI R26,LOW(-@0)
	SBCI R27,HIGH(-@0)
	ST   X+,R30
	ST   X,R30
	.ENDM

	.MACRO __CLRD1SX
	MOVW R26,R28
	SUBI R26,LOW(-@0)
	SBCI R27,HIGH(-@0)
	ST   X+,R30
	ST   X+,R30
	ST   X+,R30
	ST   X,R30
	.ENDM

	.MACRO __PUTB2SX
	MOVW R30,R28
	SUBI R30,LOW(-@0)
	SBCI R31,HIGH(-@0)
	ST   Z,R26
	.ENDM

	.MACRO __PUTW2SX
	MOVW R30,R28
	SUBI R30,LOW(-@0)
	SBCI R31,HIGH(-@0)
	ST   Z+,R26
	ST   Z,R27
	.ENDM

	.MACRO __PUTD2SX
	MOVW R30,R28
	SUBI R30,LOW(-@0)
	SBCI R31,HIGH(-@0)
	ST   Z+,R26
	ST   Z+,R27
	ST   Z+,R24
	ST   Z,R25
	.ENDM

	.MACRO __PUTBSRX
	MOVW R30,R28
	SUBI R30,LOW(-@1)
	SBCI R31,HIGH(-@1)
	ST   Z,R@0
	.ENDM

	.MACRO __PUTWSRX
	MOVW R30,R28
	SUBI R30,LOW(-@2)
	SBCI R31,HIGH(-@2)
	ST   Z+,R@0
	ST   Z,R@1
	.ENDM

	.MACRO __PUTB1SNX
	MOVW R26,R28
	SUBI R26,LOW(-@0)
	SBCI R27,HIGH(-@0)
	LD   R0,X+
	LD   R27,X
	MOV  R26,R0
	SUBI R26,LOW(-@1)
	SBCI R27,HIGH(-@1)
	ST   X,R30
	.ENDM

	.MACRO __PUTW1SNX
	MOVW R26,R28
	SUBI R26,LOW(-@0)
	SBCI R27,HIGH(-@0)
	LD   R0,X+
	LD   R27,X
	MOV  R26,R0
	SUBI R26,LOW(-@1)
	SBCI R27,HIGH(-@1)
	ST   X+,R30
	ST   X,R31
	.ENDM

	.MACRO __PUTD1SNX
	MOVW R26,R28
	SUBI R26,LOW(-@0)
	SBCI R27,HIGH(-@0)
	LD   R0,X+
	LD   R27,X
	MOV  R26,R0
	SUBI R26,LOW(-@1)
	SBCI R27,HIGH(-@1)
	ST   X+,R30
	ST   X+,R31
	ST   X+,R22
	ST   X,R23
	.ENDM

	.MACRO __MULBRR
	MULS R@0,R@1
	MOVW R30,R0
	.ENDM

	.MACRO __MULBRRU
	MUL  R@0,R@1
	MOVW R30,R0
	.ENDM

	.MACRO __MULBRR0
	MULS R@0,R@1
	.ENDM

	.MACRO __MULBRRU0
	MUL  R@0,R@1
	.ENDM

	.MACRO __MULBNWRU
	LDI  R26,@2
	MUL  R26,R@0
	MOVW R30,R0
	MUL  R26,R@1
	ADD  R31,R0
	.ENDM

;NAME DEFINITIONS FOR GLOBAL VARIABLES ALLOCATED TO REGISTERS
	.DEF _cmp=R4
	.DEF _cmp_msb=R5
	.DEF _c=R6
	.DEF _c_msb=R7
	.DEF _i=R8
	.DEF _i_msb=R9
	.DEF _adc_min=R10
	.DEF _adc_min_msb=R11
	.DEF _shl=R12
	.DEF _shl_msb=R13

	.CSEG
	.ORG 0x00

;START OF CODE MARKER
__START_OF_CODE:

;INTERRUPT VECTORS
	JMP  __RESET
	JMP  0x00
	JMP  0x00
	JMP  0x00
	JMP  0x00
	JMP  0x00
	JMP  0x00
	JMP  0x00
	JMP  0x00
	JMP  0x00
	JMP  0x00
	JMP  0x00
	JMP  0x00
	JMP  0x00
	JMP  0x00
	JMP  0x00
	JMP  0x00
	JMP  0x00
	JMP  0x00
	JMP  0x00
	JMP  0x00

_0x2000003:
	.DB  0x80,0xC0

__GLOBAL_INI_TBL:
	.DW  0x02
	.DW  __base_y_G100
	.DW  _0x2000003*2

_0xFFFFFFFF:
	.DW  0

#define __GLOBAL_INI_TBL_PRESENT 1

__RESET:
	CLI
	CLR  R30
	OUT  EECR,R30

;INTERRUPT VECTORS ARE PLACED
;AT THE START OF FLASH
	LDI  R31,1
	OUT  GICR,R31
	OUT  GICR,R30
	OUT  MCUCR,R30

;CLEAR R2-R14
	LDI  R24,(14-2)+1
	LDI  R26,2
	CLR  R27
__CLEAR_REG:
	ST   X+,R30
	DEC  R24
	BRNE __CLEAR_REG

;CLEAR SRAM
	LDI  R24,LOW(__CLEAR_SRAM_SIZE)
	LDI  R25,HIGH(__CLEAR_SRAM_SIZE)
	LDI  R26,__SRAM_START
__CLEAR_SRAM:
	ST   X+,R30
	SBIW R24,1
	BRNE __CLEAR_SRAM

;GLOBAL VARIABLES INITIALIZATION
	LDI  R30,LOW(__GLOBAL_INI_TBL*2)
	LDI  R31,HIGH(__GLOBAL_INI_TBL*2)
__GLOBAL_INI_NEXT:
	LPM  R24,Z+
	LPM  R25,Z+
	SBIW R24,0
	BREQ __GLOBAL_INI_END
	LPM  R26,Z+
	LPM  R27,Z+
	LPM  R0,Z+
	LPM  R1,Z+
	MOVW R22,R30
	MOVW R30,R0
__GLOBAL_INI_LOOP:
	LPM  R0,Z+
	ST   X+,R0
	SBIW R24,1
	BRNE __GLOBAL_INI_LOOP
	MOVW R30,R22
	RJMP __GLOBAL_INI_NEXT
__GLOBAL_INI_END:

;HARDWARE STACK POINTER INITIALIZATION
	LDI  R30,LOW(__SRAM_END-__HEAP_SIZE)
	OUT  SPL,R30
	LDI  R30,HIGH(__SRAM_END-__HEAP_SIZE)
	OUT  SPH,R30

;DATA STACK POINTER INITIALIZATION
	LDI  R28,LOW(__SRAM_START+__DSTACK_SIZE)
	LDI  R29,HIGH(__SRAM_START+__DSTACK_SIZE)

	JMP  _main

	.ESEG
	.ORG 0

	.DSEG
	.ORG 0x160

	.CSEG
;/*******************************************************
;This program was created by the
;CodeWizardAVR V3.12 Advanced
;Automatic Program Generator
;© Copyright 1998-2014 Pavel Haiduc, HP InfoTech s.r.l.
;http://www.hpinfotech.com
;
;Project :
;Version :
;Date    : 24/10/2019
;Author  :
;Company :
;Comments:
;
;
;Chip type               : ATmega16
;Program type            : Application
;AVR Core Clock frequency: 8/000000 MHz
;Memory model            : Small
;External RAM size       : 0
;Data Stack size         : 256
;*******************************************************/
;
;#include <mega16.h>
	#ifndef __SLEEP_DEFINED__
	#define __SLEEP_DEFINED__
	.EQU __se_bit=0x40
	.EQU __sm_mask=0xB0
	.EQU __sm_powerdown=0x20
	.EQU __sm_powersave=0x30
	.EQU __sm_standby=0xA0
	.EQU __sm_ext_standby=0xB0
	.EQU __sm_adc_noise_red=0x10
	.SET power_ctrl_reg=mcucr
	#endif
;
;#include <delay.h>
;int cmp,c,i,adc[16],adc_min,shl,shb,shr,e;
;
;// I2C Bus functions
;#include <i2c.h>
;#define EEPROM_BUS_ADDRES 0xc0
;/* read/ a byte from the EEPROM */
;unsigned char compass_read(unsigned char addres)
; 0000 0022  {

	.CSEG
_compass_read:
; .FSTART _compass_read
; 0000 0023     unsigned char data;
; 0000 0024     delay_us(100);
	ST   -Y,R26
	ST   -Y,R17
;	addres -> Y+1
;	data -> R17
	CALL SUBOPT_0x0
; 0000 0025     i2c_start();
	CALL _i2c_start
; 0000 0026     delay_us(100);
	CALL SUBOPT_0x0
; 0000 0027     i2c_write(EEPROM_BUS_ADDRES);
	LDI  R26,LOW(192)
	CALL SUBOPT_0x1
; 0000 0028     delay_us(100);
; 0000 0029     i2c_write(addres);
	LDD  R26,Y+1
	CALL SUBOPT_0x1
; 0000 002A     delay_us(100);
; 0000 002B     i2c_start();
	CALL _i2c_start
; 0000 002C     delay_us(100);
	CALL SUBOPT_0x0
; 0000 002D     i2c_write(EEPROM_BUS_ADDRES | 1);
	LDI  R26,LOW(193)
	CALL SUBOPT_0x1
; 0000 002E     delay_us(100);
; 0000 002F     data=i2c_read(0);
	LDI  R26,LOW(0)
	CALL _i2c_read
	MOV  R17,R30
; 0000 0030     delay_us(100);
	CALL SUBOPT_0x0
; 0000 0031     i2c_stop();
	CALL _i2c_stop
; 0000 0032     delay_us(100);
	CALL SUBOPT_0x0
; 0000 0033     return data;
	MOV  R30,R17
	LDD  R17,Y+0
	JMP  _0x2020002
; 0000 0034  }
; .FEND
;
;// Alphanumeric LCD functions
;#include <alcd.h>
;
;// Declare your global variables here
;
;// Voltage Reference: AVCC pin
;#define ADC_VREF_TYPE ((0<<REFS1) | (1<<REFS0) | (0<<ADLAR))
;
;// Read the AD conversion result
;unsigned int read_adc(unsigned char adc_input)
; 0000 0040 {
_read_adc:
; .FSTART _read_adc
; 0000 0041 ADMUX=adc_input | ADC_VREF_TYPE;
	ST   -Y,R26
;	adc_input -> Y+0
	LD   R30,Y
	ORI  R30,0x40
	OUT  0x7,R30
; 0000 0042 // Delay needed for the stabilization of the ADC input voltage
; 0000 0043 delay_us(10);
	__DELAY_USB 27
; 0000 0044 // Start the AD conversion
; 0000 0045 ADCSRA|=(1<<ADSC);
	SBI  0x6,6
; 0000 0046 // Wait for the AD conversion to complete
; 0000 0047 while ((ADCSRA & (1<<ADIF))==0);
_0x3:
	SBIS 0x6,4
	RJMP _0x3
; 0000 0048 ADCSRA|=(1<<ADIF);
	SBI  0x6,4
; 0000 0049 return ADCW;
	IN   R30,0x4
	IN   R31,0x4+1
	JMP  _0x2020001
; 0000 004A }
; .FEND
;
;void read_cmp()
; 0000 004D {
_read_cmp:
; .FSTART _read_cmp
; 0000 004E  cmp=compass_read(1)-c;
	LDI  R26,LOW(1)
	RCALL _compass_read
	LDI  R31,0
	SUB  R30,R6
	SBC  R31,R7
	MOVW R4,R30
; 0000 004F 
; 0000 0050           if (cmp<0) cmp=cmp+255;
	CLR  R0
	CP   R4,R0
	CPC  R5,R0
	BRGE _0x6
	SUBI R30,LOW(-255)
	SBCI R31,HIGH(-255)
	MOVW R4,R30
; 0000 0051           if (cmp>128) cmp=cmp-255;
_0x6:
	LDI  R30,LOW(128)
	LDI  R31,HIGH(128)
	CP   R30,R4
	CPC  R31,R5
	BRGE _0x7
	LDI  R30,LOW(255)
	LDI  R31,HIGH(255)
	__SUBWRR 4,5,30,31
; 0000 0052           if (cmp<128) cmp=cmp;
_0x7:
	LDI  R30,LOW(128)
	LDI  R31,HIGH(128)
	CP   R4,R30
	CPC  R5,R31
	BRGE _0x8
	MOVW R4,R4
; 0000 0053 
; 0000 0054           if(cmp>=0)
_0x8:
	CLR  R0
	CP   R4,R0
	CPC  R5,R0
	BRLT _0x9
; 0000 0055           {
; 0000 0056               lcd_gotoxy(8,0);
	LDI  R30,LOW(8)
	CALL SUBOPT_0x2
; 0000 0057               lcd_putchar('+');
	LDI  R26,LOW(43)
	CALL _lcd_putchar
; 0000 0058               lcd_putchar((cmp/100)%10+'0');
	MOVW R26,R4
	CALL SUBOPT_0x3
; 0000 0059               lcd_putchar((cmp/10)%10+'0');
	MOVW R26,R4
	CALL SUBOPT_0x4
; 0000 005A               lcd_putchar((cmp/1)%10+'0');
	MOVW R26,R4
	RJMP _0x6E
; 0000 005B           }
; 0000 005C           else if(cmp<0)
_0x9:
	CLR  R0
	CP   R4,R0
	CPC  R5,R0
	BRGE _0xB
; 0000 005D           {
; 0000 005E               lcd_gotoxy(8,0);
	LDI  R30,LOW(8)
	CALL SUBOPT_0x2
; 0000 005F               lcd_putchar('-');
	LDI  R26,LOW(45)
	CALL _lcd_putchar
; 0000 0060               lcd_putchar((-1*cmp/100)%10+'0');
	CALL SUBOPT_0x5
	CALL SUBOPT_0x3
; 0000 0061               lcd_putchar((-1*cmp/10)%10+'0');
	CALL SUBOPT_0x5
	CALL SUBOPT_0x4
; 0000 0062               lcd_putchar((-1*cmp/1)%10+'0');
	CALL SUBOPT_0x5
_0x6E:
	LDI  R30,LOW(10)
	LDI  R31,HIGH(10)
	CALL SUBOPT_0x6
; 0000 0063           }
; 0000 0064 
; 0000 0065 }
_0xB:
	RET
; .FEND
;void read_sensor()
; 0000 0067 {
_read_sensor:
; .FSTART _read_sensor
; 0000 0068  for(i=0;i<16;i++)
	CLR  R8
	CLR  R9
_0xD:
	LDI  R30,LOW(16)
	LDI  R31,HIGH(16)
	CP   R8,R30
	CPC  R9,R31
	BRLT PC+2
	RJMP _0xE
; 0000 0069  {
; 0000 006A       PORTB.4=(i/1)%2;
	MOVW R30,R8
	CALL SUBOPT_0x7
	BRNE _0xF
	CBI  0x18,4
	RJMP _0x10
_0xF:
	SBI  0x18,4
_0x10:
; 0000 006B       PORTB.5=(i/2)%2;
	MOVW R26,R8
	LDI  R30,LOW(2)
	LDI  R31,HIGH(2)
	CALL SUBOPT_0x8
	BRNE _0x11
	CBI  0x18,5
	RJMP _0x12
_0x11:
	SBI  0x18,5
_0x12:
; 0000 006C       PORTB.6=(i/4)%2;
	MOVW R26,R8
	LDI  R30,LOW(4)
	LDI  R31,HIGH(4)
	CALL SUBOPT_0x8
	BRNE _0x13
	CBI  0x18,6
	RJMP _0x14
_0x13:
	SBI  0x18,6
_0x14:
; 0000 006D       PORTB.7=(i/8)%2;
	MOVW R26,R8
	LDI  R30,LOW(8)
	LDI  R31,HIGH(8)
	CALL SUBOPT_0x8
	BRNE _0x15
	CBI  0x18,7
	RJMP _0x16
_0x15:
	SBI  0x18,7
_0x16:
; 0000 006E       adc[i]=read_adc(0);
	MOVW R30,R8
	CALL SUBOPT_0x9
	ADD  R30,R26
	ADC  R31,R27
	PUSH R31
	PUSH R30
	LDI  R26,LOW(0)
	RCALL _read_adc
	POP  R26
	POP  R27
	ST   X+,R30
	ST   X,R31
; 0000 006F       if(adc[i]<adc[adc_min]) adc_min=i;
	MOVW R30,R8
	CALL SUBOPT_0x9
	ADD  R26,R30
	ADC  R27,R31
	LD   R0,X+
	LD   R1,X
	MOVW R30,R10
	CALL SUBOPT_0x9
	CALL SUBOPT_0xA
	CP   R0,R30
	CPC  R1,R31
	BRGE _0x17
	MOVW R10,R8
; 0000 0070       }
_0x17:
	MOVW R30,R8
	ADIW R30,1
	MOVW R8,R30
	RJMP _0xD
_0xE:
; 0000 0071       lcd_gotoxy(0,0);
	LDI  R30,LOW(0)
	CALL SUBOPT_0x2
; 0000 0072       lcd_putchar((adc_min/10)%10+'0');
	MOVW R26,R10
	CALL SUBOPT_0x4
; 0000 0073       lcd_putchar((adc_min/1)%10+'0');
	MOVW R26,R10
	CALL SUBOPT_0xB
; 0000 0074       lcd_putchar(':');
	LDI  R26,LOW(58)
	CALL _lcd_putchar
; 0000 0075       lcd_putchar((adc[adc_min]/1000)%10+'0');
	MOVW R30,R10
	CALL SUBOPT_0x9
	CALL SUBOPT_0xA
	MOVW R26,R30
	LDI  R30,LOW(1000)
	LDI  R31,HIGH(1000)
	CALL __DIVW21
	MOVW R26,R30
	CALL SUBOPT_0xB
; 0000 0076       lcd_putchar((adc[adc_min]/100)%10+'0');
	MOVW R30,R10
	CALL SUBOPT_0x9
	CALL SUBOPT_0xA
	MOVW R26,R30
	CALL SUBOPT_0x3
; 0000 0077       lcd_putchar((adc[adc_min]/10)%10+'0');
	MOVW R30,R10
	CALL SUBOPT_0x9
	CALL SUBOPT_0xA
	MOVW R26,R30
	CALL SUBOPT_0x4
; 0000 0078       lcd_putchar((adc[adc_min]/1)%10+'0');
	MOVW R30,R10
	CALL SUBOPT_0x9
	CALL SUBOPT_0xA
	MOVW R26,R30
	CALL SUBOPT_0xB
; 0000 0079 
; 0000 007A 
; 0000 007B        //-------------------sharp left
; 0000 007C        shl=read_adc(1);
	LDI  R26,LOW(1)
	RCALL _read_adc
	MOVW R12,R30
; 0000 007D 
; 0000 007E        lcd_gotoxy(0,1);
	LDI  R30,LOW(0)
	CALL SUBOPT_0xC
; 0000 007F 
; 0000 0080        lcd_putchar((shl/100)%10+'0');
	MOVW R26,R12
	CALL SUBOPT_0x3
; 0000 0081 
; 0000 0082        lcd_putchar((shl/10)%10+'0');
	MOVW R26,R12
	CALL SUBOPT_0x4
; 0000 0083 
; 0000 0084        lcd_putchar((shl/1)%10+'0');
	MOVW R26,R12
	CALL SUBOPT_0xB
; 0000 0085         //-------------------sharp back
; 0000 0086 
; 0000 0087        shb=read_adc(2);
	LDI  R26,LOW(2)
	RCALL _read_adc
	STS  _shb,R30
	STS  _shb+1,R31
; 0000 0088 
; 0000 0089        lcd_gotoxy(4,1);
	LDI  R30,LOW(4)
	CALL SUBOPT_0xC
; 0000 008A 
; 0000 008B        lcd_putchar((shb/100)%10+'0');
	CALL SUBOPT_0xD
	CALL SUBOPT_0x3
; 0000 008C 
; 0000 008D        lcd_putchar((shb/10)%10+'0');
	CALL SUBOPT_0xD
	CALL SUBOPT_0x4
; 0000 008E 
; 0000 008F        lcd_putchar((shb/1)%10+'0');
	CALL SUBOPT_0xD
	CALL SUBOPT_0xB
; 0000 0090        //-------------------sharp right
; 0000 0091 
; 0000 0092        shr=read_adc(3);
	LDI  R26,LOW(3)
	RCALL _read_adc
	STS  _shr,R30
	STS  _shr+1,R31
; 0000 0093 
; 0000 0094        lcd_gotoxy(8,1);
	LDI  R30,LOW(8)
	CALL SUBOPT_0xC
; 0000 0095 
; 0000 0096        lcd_putchar((shr/100)%10+'0');
	CALL SUBOPT_0xE
	CALL SUBOPT_0x3
; 0000 0097 
; 0000 0098        lcd_putchar((shr/10)%10+'0');
	CALL SUBOPT_0xE
	CALL SUBOPT_0x4
; 0000 0099 
; 0000 009A        lcd_putchar((shr/1)%10+'0');
	CALL SUBOPT_0xE
	CALL SUBOPT_0xB
; 0000 009B 
; 0000 009C        e=(shr-shl);
	LDS  R30,_shr
	LDS  R31,_shr+1
	SUB  R30,R12
	SBC  R31,R13
	STS  _e,R30
	STS  _e+1,R31
; 0000 009D  }
	RET
; .FEND
;
; void motor(int ml1,int ml2,int mr2,int mr1)
; 0000 00A0  {
_motor:
; .FSTART _motor
; 0000 00A1 
; 0000 00A2      ml1+=cmp;
	ST   -Y,R27
	ST   -Y,R26
;	ml1 -> Y+6
;	ml2 -> Y+4
;	mr2 -> Y+2
;	mr1 -> Y+0
	MOVW R30,R4
	LDD  R26,Y+6
	LDD  R27,Y+6+1
	ADD  R30,R26
	ADC  R31,R27
	STD  Y+6,R30
	STD  Y+6+1,R31
; 0000 00A3      ml2+=cmp;
	MOVW R30,R4
	LDD  R26,Y+4
	LDD  R27,Y+4+1
	ADD  R30,R26
	ADC  R31,R27
	STD  Y+4,R30
	STD  Y+4+1,R31
; 0000 00A4      mr2+=cmp;
	MOVW R30,R4
	LDD  R26,Y+2
	LDD  R27,Y+2+1
	ADD  R30,R26
	ADC  R31,R27
	STD  Y+2,R30
	STD  Y+2+1,R31
; 0000 00A5      mr1+=cmp;
	MOVW R30,R4
	LD   R26,Y
	LDD  R27,Y+1
	ADD  R30,R26
	ADC  R31,R27
	ST   Y,R30
	STD  Y+1,R31
; 0000 00A6 
; 0000 00A7      if(ml1>255)  ml1=255;
	LDD  R26,Y+6
	LDD  R27,Y+6+1
	CPI  R26,LOW(0x100)
	LDI  R30,HIGH(0x100)
	CPC  R27,R30
	BRLT _0x18
	LDI  R30,LOW(255)
	LDI  R31,HIGH(255)
	STD  Y+6,R30
	STD  Y+6+1,R31
; 0000 00A8      if(ml1<-255) ml1=-255;
_0x18:
	LDD  R26,Y+6
	LDD  R27,Y+6+1
	CPI  R26,LOW(0xFF01)
	LDI  R30,HIGH(0xFF01)
	CPC  R27,R30
	BRGE _0x19
	LDI  R30,LOW(65281)
	LDI  R31,HIGH(65281)
	STD  Y+6,R30
	STD  Y+6+1,R31
; 0000 00A9 
; 0000 00AA      if(ml2>255)  ml2=255;
_0x19:
	LDD  R26,Y+4
	LDD  R27,Y+4+1
	CPI  R26,LOW(0x100)
	LDI  R30,HIGH(0x100)
	CPC  R27,R30
	BRLT _0x1A
	LDI  R30,LOW(255)
	LDI  R31,HIGH(255)
	STD  Y+4,R30
	STD  Y+4+1,R31
; 0000 00AB      if(ml2<-255) ml2=-255;
_0x1A:
	LDD  R26,Y+4
	LDD  R27,Y+4+1
	CPI  R26,LOW(0xFF01)
	LDI  R30,HIGH(0xFF01)
	CPC  R27,R30
	BRGE _0x1B
	LDI  R30,LOW(65281)
	LDI  R31,HIGH(65281)
	STD  Y+4,R30
	STD  Y+4+1,R31
; 0000 00AC 
; 0000 00AD      if(mr2>255)  mr2=255;
_0x1B:
	LDD  R26,Y+2
	LDD  R27,Y+2+1
	CPI  R26,LOW(0x100)
	LDI  R30,HIGH(0x100)
	CPC  R27,R30
	BRLT _0x1C
	LDI  R30,LOW(255)
	LDI  R31,HIGH(255)
	STD  Y+2,R30
	STD  Y+2+1,R31
; 0000 00AE      if(mr2<-255) mr2=-255;
_0x1C:
	LDD  R26,Y+2
	LDD  R27,Y+2+1
	CPI  R26,LOW(0xFF01)
	LDI  R30,HIGH(0xFF01)
	CPC  R27,R30
	BRGE _0x1D
	LDI  R30,LOW(65281)
	LDI  R31,HIGH(65281)
	STD  Y+2,R30
	STD  Y+2+1,R31
; 0000 00AF 
; 0000 00B0      if(mr1>255)  mr1=255;
_0x1D:
	LD   R26,Y
	LDD  R27,Y+1
	CPI  R26,LOW(0x100)
	LDI  R30,HIGH(0x100)
	CPC  R27,R30
	BRLT _0x1E
	LDI  R30,LOW(255)
	LDI  R31,HIGH(255)
	ST   Y,R30
	STD  Y+1,R31
; 0000 00B1      if(mr1<-255) mr1=-255;
_0x1E:
	LD   R26,Y
	LDD  R27,Y+1
	CPI  R26,LOW(0xFF01)
	LDI  R30,HIGH(0xFF01)
	CPC  R27,R30
	BRGE _0x1F
	LDI  R30,LOW(65281)
	LDI  R31,HIGH(65281)
	ST   Y,R30
	STD  Y+1,R31
; 0000 00B2 
; 0000 00B3  //ML1
; 0000 00B4 
; 0000 00B5        if(ml1>0)
_0x1F:
	LDD  R26,Y+6
	LDD  R27,Y+6+1
	CALL __CPW02
	BRGE _0x20
; 0000 00B6        {
; 0000 00B7        PORTD.3=0;
	CBI  0x12,3
; 0000 00B8        OCR2=ml1;
	LDD  R30,Y+6
	RJMP _0x6F
; 0000 00B9        }
; 0000 00BA        else if(ml1<=0)
_0x20:
	LDD  R26,Y+6
	LDD  R27,Y+6+1
	CALL __CPW02
	BRLT _0x24
; 0000 00BB        {
; 0000 00BC        PORTD.3=1 ;
	SBI  0x12,3
; 0000 00BD        OCR2=ml1+255 ;
	LDD  R30,Y+6
	SUBI R30,-LOW(255)
_0x6F:
	OUT  0x23,R30
; 0000 00BE        }
; 0000 00BF 
; 0000 00C0        //ML2
; 0000 00C1        if(ml2>0)
_0x24:
	LDD  R26,Y+4
	LDD  R27,Y+4+1
	CALL __CPW02
	BRGE _0x27
; 0000 00C2        {
; 0000 00C3        PORTD.2=0;
	CBI  0x12,2
; 0000 00C4        OCR1A=ml2;
	LDD  R30,Y+4
	LDD  R31,Y+4+1
	RJMP _0x70
; 0000 00C5        }
; 0000 00C6        else if(ml2<=0)
_0x27:
	LDD  R26,Y+4
	LDD  R27,Y+4+1
	CALL __CPW02
	BRLT _0x2B
; 0000 00C7        {
; 0000 00C8 
; 0000 00C9        PORTD.2=1;
	SBI  0x12,2
; 0000 00CA        OCR1A=ml2+255;
	LDD  R30,Y+4
	LDD  R31,Y+4+1
	SUBI R30,LOW(-255)
	SBCI R31,HIGH(-255)
_0x70:
	OUT  0x2A+1,R31
	OUT  0x2A,R30
; 0000 00CB        }
; 0000 00CC 
; 0000 00CD        //MR2
; 0000 00CE        if(mr2>0)
_0x2B:
	LDD  R26,Y+2
	LDD  R27,Y+2+1
	CALL __CPW02
	BRGE _0x2E
; 0000 00CF        {
; 0000 00D0        PORTD.1=0;
	CBI  0x12,1
; 0000 00D1        OCR1B=mr2;
	LDD  R30,Y+2
	LDD  R31,Y+2+1
	RJMP _0x71
; 0000 00D2        }
; 0000 00D3        else if(mr2<=0)
_0x2E:
	LDD  R26,Y+2
	LDD  R27,Y+2+1
	CALL __CPW02
	BRLT _0x32
; 0000 00D4        {
; 0000 00D5        PORTD.1=1;
	SBI  0x12,1
; 0000 00D6        OCR1B=mr2+255;
	LDD  R30,Y+2
	LDD  R31,Y+2+1
	SUBI R30,LOW(-255)
	SBCI R31,HIGH(-255)
_0x71:
	OUT  0x28+1,R31
	OUT  0x28,R30
; 0000 00D7        }
; 0000 00D8        //MR1
; 0000 00D9        if(mr1>0)
_0x32:
	LD   R26,Y
	LDD  R27,Y+1
	CALL __CPW02
	BRGE _0x35
; 0000 00DA        {
; 0000 00DB        PORTD.0=0;
	CBI  0x12,0
; 0000 00DC        OCR0=mr1;
	LD   R30,Y
	RJMP _0x72
; 0000 00DD        }
; 0000 00DE        else if(mr1<=0)
_0x35:
	LD   R26,Y
	LDD  R27,Y+1
	CALL __CPW02
	BRLT _0x39
; 0000 00DF        {
; 0000 00E0        PORTD.0=1;
	SBI  0x12,0
; 0000 00E1        OCR0=mr1+255;
	LD   R30,Y
	SUBI R30,-LOW(255)
_0x72:
	OUT  0x3C,R30
; 0000 00E2        }
; 0000 00E3 }
_0x39:
	ADIW R28,8
	RET
; .FEND
;
;
; void  shift()
; 0000 00E7  {
_shift:
; .FSTART _shift
; 0000 00E8         if(adc_min==0)       motor(255,255,-255,-255);
	MOV  R0,R10
	OR   R0,R11
	BRNE _0x3C
	CALL SUBOPT_0xF
	CALL SUBOPT_0xF
	LDI  R30,LOW(65281)
	LDI  R31,HIGH(65281)
	RJMP _0x73
; 0000 00E9 
; 0000 00EA        else if(adc_min==1) motor(255,-128,-255,128);  //motor(255,128,-255,-128);
_0x3C:
	LDI  R30,LOW(1)
	LDI  R31,HIGH(1)
	CP   R30,R10
	CPC  R31,R11
	BRNE _0x3E
	CALL SUBOPT_0xF
	CALL SUBOPT_0x10
	CALL SUBOPT_0x11
	LDI  R26,LOW(128)
	LDI  R27,0
	RJMP _0x74
; 0000 00EB 
; 0000 00EC        else if(adc_min==2) motor(255,-255,-255,255); //motor(255,0-255,0);
_0x3E:
	LDI  R30,LOW(2)
	LDI  R31,HIGH(2)
	CP   R30,R10
	CPC  R31,R11
	BRNE _0x40
	CALL SUBOPT_0xF
	CALL SUBOPT_0x11
	CALL SUBOPT_0x11
	LDI  R26,LOW(255)
	LDI  R27,0
	RJMP _0x74
; 0000 00ED 
; 0000 00EE        else if(adc_min==3) motor(128,-255,-128,255); //motor(255,-128,-255,128);
_0x40:
	LDI  R30,LOW(3)
	LDI  R31,HIGH(3)
	CP   R30,R10
	CPC  R31,R11
	BRNE _0x42
	CALL SUBOPT_0x12
	CALL SUBOPT_0x11
	CALL SUBOPT_0x10
	LDI  R26,LOW(255)
	LDI  R27,0
	RJMP _0x74
; 0000 00EF 
; 0000 00F0        else if(adc_min==4) motor(0,-255,0,255);      //motor(255,-255,-255,255);
_0x42:
	LDI  R30,LOW(4)
	LDI  R31,HIGH(4)
	CP   R30,R10
	CPC  R31,R11
	BRNE _0x44
	CALL SUBOPT_0x13
	CALL SUBOPT_0x11
	CALL SUBOPT_0x13
	LDI  R26,LOW(255)
	LDI  R27,0
	RJMP _0x74
; 0000 00F1 
; 0000 00F2        else if(adc_min==5) motor(-128,-255,128,255); // motor(128,-255,-128,255);
_0x44:
	LDI  R30,LOW(5)
	LDI  R31,HIGH(5)
	CP   R30,R10
	CPC  R31,R11
	BRNE _0x46
	CALL SUBOPT_0x10
	CALL SUBOPT_0x11
	CALL SUBOPT_0x12
	LDI  R26,LOW(255)
	LDI  R27,0
	RJMP _0x74
; 0000 00F3 
; 0000 00F4        else if(adc_min==6) motor(-255,-255,255,255); // motor(0,-255,0,255);
_0x46:
	LDI  R30,LOW(6)
	LDI  R31,HIGH(6)
	CP   R30,R10
	CPC  R31,R11
	BRNE _0x48
	CALL SUBOPT_0x11
	CALL SUBOPT_0x11
	CALL SUBOPT_0xF
	LDI  R26,LOW(255)
	LDI  R27,0
	RJMP _0x74
; 0000 00F5 
; 0000 00F6        else if(adc_min==7) motor(-255,-128,255,128); // motor(-128,-255,128,255);
_0x48:
	LDI  R30,LOW(7)
	LDI  R31,HIGH(7)
	CP   R30,R10
	CPC  R31,R11
	BRNE _0x4A
	CALL SUBOPT_0x11
	CALL SUBOPT_0x10
	CALL SUBOPT_0xF
	LDI  R26,LOW(128)
	LDI  R27,0
	RJMP _0x74
; 0000 00F7 
; 0000 00F8        else if(adc_min==8) motor(-255,0,255,0);       // motor(-255,-255,255,255);
_0x4A:
	LDI  R30,LOW(8)
	LDI  R31,HIGH(8)
	CP   R30,R10
	CPC  R31,R11
	BRNE _0x4C
	CALL SUBOPT_0x11
	CALL SUBOPT_0x13
	CALL SUBOPT_0xF
	LDI  R26,LOW(0)
	LDI  R27,0
	RJMP _0x74
; 0000 00F9 
; 0000 00FA        else if(adc_min==9) motor(-128,-255,128,25);  // motor(-255,-128,255,128);
_0x4C:
	LDI  R30,LOW(9)
	LDI  R31,HIGH(9)
	CP   R30,R10
	CPC  R31,R11
	BRNE _0x4E
	CALL SUBOPT_0x10
	CALL SUBOPT_0x11
	CALL SUBOPT_0x12
	LDI  R26,LOW(25)
	LDI  R27,0
	RJMP _0x74
; 0000 00FB 
; 0000 00FC        else if(adc_min==10) motor(-255,-255,255,255); //motor(-255,0,255,0);
_0x4E:
	LDI  R30,LOW(10)
	LDI  R31,HIGH(10)
	CP   R30,R10
	CPC  R31,R11
	BRNE _0x50
	CALL SUBOPT_0x11
	CALL SUBOPT_0x11
	CALL SUBOPT_0xF
	LDI  R26,LOW(255)
	LDI  R27,0
	RJMP _0x74
; 0000 00FD 
; 0000 00FE        else if(adc_min==11) motor(-255,-128,255,128); // motor(-255,128,255,-128);
_0x50:
	LDI  R30,LOW(11)
	LDI  R31,HIGH(11)
	CP   R30,R10
	CPC  R31,R11
	BRNE _0x52
	CALL SUBOPT_0x11
	CALL SUBOPT_0x10
	CALL SUBOPT_0xF
	LDI  R26,LOW(128)
	LDI  R27,0
	RJMP _0x74
; 0000 00FF 
; 0000 0100        else if(adc_min==12) motor(-255,0,255,0);      // motor(-255,255,255,-255);
_0x52:
	LDI  R30,LOW(12)
	LDI  R31,HIGH(12)
	CP   R30,R10
	CPC  R31,R11
	BRNE _0x54
	CALL SUBOPT_0x11
	CALL SUBOPT_0x13
	RCALL SUBOPT_0xF
	LDI  R26,LOW(0)
	LDI  R27,0
	RJMP _0x74
; 0000 0101 
; 0000 0102        else if(adc_min==13) motor(-255,128,255,-128); // motor(-128,255,128,-255);
_0x54:
	LDI  R30,LOW(13)
	LDI  R31,HIGH(13)
	CP   R30,R10
	CPC  R31,R11
	BRNE _0x56
	RCALL SUBOPT_0x11
	RCALL SUBOPT_0x12
	RCALL SUBOPT_0xF
	LDI  R26,LOW(65408)
	LDI  R27,HIGH(65408)
	RJMP _0x74
; 0000 0103 
; 0000 0104        else if(adc_min==14) motor(-255,255,255,-255); // motor(0,255,0,-255);
_0x56:
	LDI  R30,LOW(14)
	LDI  R31,HIGH(14)
	CP   R30,R10
	CPC  R31,R11
	BRNE _0x58
	RCALL SUBOPT_0x11
	RCALL SUBOPT_0xF
	LDI  R30,LOW(255)
	LDI  R31,HIGH(255)
	RJMP _0x73
; 0000 0105 
; 0000 0106        else if(adc_min==15) motor(-128,255,128,-255); // motor(128,255,-128,-255);
_0x58:
	LDI  R30,LOW(15)
	LDI  R31,HIGH(15)
	CP   R30,R10
	CPC  R31,R11
	BRNE _0x5A
	RCALL SUBOPT_0x10
	RCALL SUBOPT_0xF
	LDI  R30,LOW(128)
	LDI  R31,HIGH(128)
_0x73:
	ST   -Y,R31
	ST   -Y,R30
	LDI  R26,LOW(65281)
	LDI  R27,HIGH(65281)
_0x74:
	RCALL _motor
; 0000 0107  }
_0x5A:
	RET
; .FEND
;
;
;void main(void)
; 0000 010B {
_main:
; .FSTART _main
; 0000 010C // Declare your local variables here
; 0000 010D 
; 0000 010E // Input/Output Ports initialization
; 0000 010F // Port A initialization
; 0000 0110 // Function: Bit7=In Bit6=In Bit5=In Bit4=In Bit3=In Bit2=In Bit1=In Bit0=In
; 0000 0111 DDRA=(0<<DDA7) | (0<<DDA6) | (0<<DDA5) | (0<<DDA4) | (0<<DDA3) | (0<<DDA2) | (0<<DDA1) | (0<<DDA0);
	LDI  R30,LOW(0)
	OUT  0x1A,R30
; 0000 0112 // State: Bit7=T Bit6=T Bit5=T Bit4=T Bit3=T Bit2=T Bit1=T Bit0=T
; 0000 0113 PORTA=(0<<PORTA7) | (0<<PORTA6) | (0<<PORTA5) | (0<<PORTA4) | (0<<PORTA3) | (0<<PORTA2) | (0<<PORTA1) | (0<<PORTA0);
	OUT  0x1B,R30
; 0000 0114 
; 0000 0115 // Port B initialization
; 0000 0116 // Function: Bit7=Out Bit6=Out Bit5=Out Bit4=Out Bit3=Out Bit2=Out Bit1=In Bit0=In
; 0000 0117 DDRB=(1<<DDB7) | (1<<DDB6) | (1<<DDB5) | (1<<DDB4) | (1<<DDB3) | (1<<DDB2) | (0<<DDB1) | (0<<DDB0);
	LDI  R30,LOW(252)
	OUT  0x17,R30
; 0000 0118 // State: Bit7=0 Bit6=0 Bit5=0 Bit4=0 Bit3=0 Bit2=0 Bit1=T Bit0=T
; 0000 0119 PORTB=(0<<PORTB7) | (0<<PORTB6) | (0<<PORTB5) | (0<<PORTB4) | (0<<PORTB3) | (0<<PORTB2) | (0<<PORTB1) | (0<<PORTB0);
	LDI  R30,LOW(0)
	OUT  0x18,R30
; 0000 011A 
; 0000 011B // Port C initialization
; 0000 011C // Function: Bit7=In Bit6=In Bit5=In Bit4=In Bit3=In Bit2=In Bit1=In Bit0=In
; 0000 011D DDRC=(0<<DDC7) | (0<<DDC6) | (0<<DDC5) | (0<<DDC4) | (0<<DDC3) | (0<<DDC2) | (0<<DDC1) | (0<<DDC0);
	OUT  0x14,R30
; 0000 011E // State: Bit7=T Bit6=T Bit5=T Bit4=T Bit3=T Bit2=T Bit1=T Bit0=T
; 0000 011F PORTC=(0<<PORTC7) | (0<<PORTC6) | (0<<PORTC5) | (0<<PORTC4) | (0<<PORTC3) | (0<<PORTC2) | (0<<PORTC1) | (0<<PORTC0);
	OUT  0x15,R30
; 0000 0120 
; 0000 0121 // Port D initialization
; 0000 0122 // Function: Bit7=Out Bit6=Out Bit5=Out Bit4=Out Bit3=Out Bit2=Out Bit1=Out Bit0=Out
; 0000 0123 DDRD=(1<<DDD7) | (1<<DDD6) | (1<<DDD5) | (1<<DDD4) | (1<<DDD3) | (1<<DDD2) | (1<<DDD1) | (1<<DDD0);
	LDI  R30,LOW(255)
	OUT  0x11,R30
; 0000 0124 // State: Bit7=0 Bit6=0 Bit5=0 Bit4=0 Bit3=0 Bit2=0 Bit1=0 Bit0=0
; 0000 0125 PORTD=(0<<PORTD7) | (0<<PORTD6) | (0<<PORTD5) | (0<<PORTD4) | (0<<PORTD3) | (0<<PORTD2) | (0<<PORTD1) | (0<<PORTD0);
	LDI  R30,LOW(0)
	OUT  0x12,R30
; 0000 0126 
; 0000 0127 // Timer/Counter 0 initialization
; 0000 0128 // Clock source: System Clock
; 0000 0129 // Clock value: 125/000 kHz
; 0000 012A // Mode: Fast PWM top=0xFF
; 0000 012B // OC0 output: Non-Inverted PWM
; 0000 012C // Timer Period: 2/048 ms
; 0000 012D // Output Pulse(s):
; 0000 012E // OC0 Period: 2/048 ms Width: 0 us
; 0000 012F TCCR0=(1<<WGM00) | (1<<COM01) | (0<<COM00) | (1<<WGM01) | (0<<CS02) | (1<<CS01) | (1<<CS00);
	LDI  R30,LOW(107)
	OUT  0x33,R30
; 0000 0130 TCNT0=0x00;
	LDI  R30,LOW(0)
	OUT  0x32,R30
; 0000 0131 OCR0=0x00;
	OUT  0x3C,R30
; 0000 0132 
; 0000 0133 // Timer/Counter 1 initialization
; 0000 0134 // Clock source: System Clock
; 0000 0135 // Clock value: 125/000 kHz
; 0000 0136 // Mode: Fast PWM top=0x00FF
; 0000 0137 // OC1A output: Non-Inverted PWM
; 0000 0138 // OC1B output: Non-Inverted PWM
; 0000 0139 // Noise Canceler: Off
; 0000 013A // Input Capture on Falling Edge
; 0000 013B // Timer Period: 2/048 ms
; 0000 013C // Output Pulse(s):
; 0000 013D // OC1A Period: 2/048 ms Width: 0 us// OC1B Period: 2/048 ms Width: 0 us
; 0000 013E // Timer1 Overflow Interrupt: Off
; 0000 013F // Input Capture Interrupt: Off
; 0000 0140 // Compare A Match Interrupt: Off
; 0000 0141 // Compare B Match Interrupt: Off
; 0000 0142 TCCR1A=(1<<COM1A1) | (0<<COM1A0) | (1<<COM1B1) | (0<<COM1B0) | (0<<WGM11) | (1<<WGM10);
	LDI  R30,LOW(161)
	OUT  0x2F,R30
; 0000 0143 TCCR1B=(0<<ICNC1) | (0<<ICES1) | (0<<WGM13) | (1<<WGM12) | (0<<CS12) | (1<<CS11) | (1<<CS10);
	LDI  R30,LOW(11)
	OUT  0x2E,R30
; 0000 0144 TCNT1H=0x00;
	LDI  R30,LOW(0)
	OUT  0x2D,R30
; 0000 0145 TCNT1L=0x00;
	OUT  0x2C,R30
; 0000 0146 ICR1H=0x00;
	OUT  0x27,R30
; 0000 0147 ICR1L=0x00;
	OUT  0x26,R30
; 0000 0148 OCR1AH=0x00;
	OUT  0x2B,R30
; 0000 0149 OCR1AL=0x00;
	OUT  0x2A,R30
; 0000 014A OCR1BH=0x00;
	OUT  0x29,R30
; 0000 014B OCR1BL=0x00;
	OUT  0x28,R30
; 0000 014C 
; 0000 014D // Timer/Counter 2 initialization
; 0000 014E // Clock source: System Clock
; 0000 014F // Clock value: 125/000 kHz
; 0000 0150 // Mode: Fast PWM top=0xFF
; 0000 0151 // OC2 output: Non-Inverted PWM
; 0000 0152 // Timer Period: 2/048 ms
; 0000 0153 // Output Pulse(s):
; 0000 0154 // OC2 Period: 2/048 ms Width: 0 us
; 0000 0155 ASSR=0<<AS2;
	OUT  0x22,R30
; 0000 0156 TCCR2=(1<<PWM2) | (1<<COM21) | (0<<COM20) | (1<<CTC2) | (1<<CS22) | (0<<CS21) | (0<<CS20);
	LDI  R30,LOW(108)
	OUT  0x25,R30
; 0000 0157 TCNT2=0x00;
	LDI  R30,LOW(0)
	OUT  0x24,R30
; 0000 0158 OCR2=0x00;
	OUT  0x23,R30
; 0000 0159 
; 0000 015A // Timer(s)/Counter(s) Interrupt(s) initialization
; 0000 015B TIMSK=(0<<OCIE2) | (0<<TOIE2) | (0<<TICIE1) | (0<<OCIE1A) | (0<<OCIE1B) | (0<<TOIE1) | (0<<OCIE0) | (0<<TOIE0);
	OUT  0x39,R30
; 0000 015C 
; 0000 015D // External Interrupt(s) initialization
; 0000 015E // INT0: Off
; 0000 015F // INT1: Off
; 0000 0160 // INT2: Off
; 0000 0161 MCUCR=(0<<ISC11) | (0<<ISC10) | (0<<ISC01) | (0<<ISC00);
	OUT  0x35,R30
; 0000 0162 MCUCSR=(0<<ISC2);
	OUT  0x34,R30
; 0000 0163 
; 0000 0164 // USART initialization
; 0000 0165 // USART disabled
; 0000 0166 UCSRB=(0<<RXCIE) | (0<<TXCIE) | (0<<UDRIE) | (0<<RXEN) | (0<<TXEN) | (0<<UCSZ2) | (0<<RXB8) | (0<<TXB8);
	OUT  0xA,R30
; 0000 0167 
; 0000 0168 // Analog Comparator initialization
; 0000 0169 // Analog Comparator: Off
; 0000 016A // The Analog Comparator's positive input is
; 0000 016B // connected to the AIN0 pin
; 0000 016C // The Analog Comparator's negative input is
; 0000 016D // connected to the AIN1 pin
; 0000 016E ACSR=(1<<ACD) | (0<<ACBG) | (0<<ACO) | (0<<ACI) | (0<<ACIE) | (0<<ACIC) | (0<<ACIS1) | (0<<ACIS0);
	LDI  R30,LOW(128)
	OUT  0x8,R30
; 0000 016F 
; 0000 0170 // ADC initialization
; 0000 0171 // ADC Clock frequency: 62/500 kHz
; 0000 0172 // ADC Voltage Reference: AVCC pin
; 0000 0173 // ADC Auto Trigger Source: ADC Stopped
; 0000 0174 ADMUX=ADC_VREF_TYPE;
	LDI  R30,LOW(64)
	OUT  0x7,R30
; 0000 0175 ADCSRA=(1<<ADEN) | (0<<ADSC) | (0<<ADATE) | (0<<ADIF) | (0<<ADIE) | (1<<ADPS2) | (1<<ADPS1) | (1<<ADPS0);
	LDI  R30,LOW(135)
	OUT  0x6,R30
; 0000 0176 SFIOR=(0<<ADTS2) | (0<<ADTS1) | (0<<ADTS0);
	LDI  R30,LOW(0)
	OUT  0x30,R30
; 0000 0177 
; 0000 0178 // SPI initialization
; 0000 0179 // SPI disabled
; 0000 017A SPCR=(0<<SPIE) | (0<<SPE) | (0<<DORD) | (0<<MSTR) | (0<<CPOL) | (0<<CPHA) | (0<<SPR1) | (0<<SPR0);
	OUT  0xD,R30
; 0000 017B 
; 0000 017C // TWI initialization
; 0000 017D // TWI disabled
; 0000 017E TWCR=(0<<TWEA) | (0<<TWSTA) | (0<<TWSTO) | (0<<TWEN) | (0<<TWIE);
	OUT  0x36,R30
; 0000 017F 
; 0000 0180 // Bit-Banged I2C Bus initialization
; 0000 0181 // I2C Port: PORTB
; 0000 0182 // I2C SDA bit: 1
; 0000 0183 // I2C SCL bit: 0
; 0000 0184 // Bit Rate: 100 kHz
; 0000 0185 // Note: I2C settings are specified in the
; 0000 0186 // Project|Configure|C Compiler|Libraries|I2C menu.
; 0000 0187 i2c_init();
	CALL _i2c_init
; 0000 0188 
; 0000 0189 // Alphanumeric LCD initialization
; 0000 018A // Connections are specified in the
; 0000 018B // Project|Configure|C Compiler|Libraries|Alphanumeric LCD menu:
; 0000 018C // RS - PORTC Bit 0
; 0000 018D // RD - PORTC Bit 1
; 0000 018E // EN - PORTC Bit 2
; 0000 018F // D4 - PORTC Bit 4
; 0000 0190 // D5 - PORTC Bit 5
; 0000 0191 // D6 - PORTC Bit 6
; 0000 0192 // D7 - PORTC Bit 7
; 0000 0193 // Characters/line: 16
; 0000 0194 lcd_init(16);
	LDI  R26,LOW(16)
	RCALL _lcd_init
; 0000 0195 
; 0000 0196 delay_ms(3000);
	LDI  R26,LOW(3000)
	LDI  R27,HIGH(3000)
	CALL _delay_ms
; 0000 0197 
; 0000 0198 
; 0000 0199 while (1)
_0x5B:
; 0000 019A       {
; 0000 019B 
; 0000 019C 
; 0000 019D        if(PINC.3==1)
	SBIS 0x13,3
	RJMP _0x5E
; 0000 019E        {
; 0000 019F           c=compass_read(1);
	LDI  R26,LOW(1)
	RCALL _compass_read
	MOV  R6,R30
	CLR  R7
; 0000 01A0        }
; 0000 01A1 
; 0000 01A2        read_cmp();
_0x5E:
	RCALL _read_cmp
; 0000 01A3 
; 0000 01A4 
; 0000 01A5        read_sensor();
	RCALL _read_sensor
; 0000 01A6 
; 0000 01A7 
; 0000 01A8        if(cmp<=20 && cmp>=-20) cmp*=-4;
	LDI  R30,LOW(20)
	LDI  R31,HIGH(20)
	CP   R30,R4
	CPC  R31,R5
	BRLT _0x60
	LDI  R30,LOW(65516)
	LDI  R31,HIGH(65516)
	CP   R4,R30
	CPC  R5,R31
	BRGE _0x61
_0x60:
	RJMP _0x5F
_0x61:
	MOVW R30,R4
	LDI  R26,LOW(65532)
	LDI  R27,HIGH(65532)
	CALL __MULW12
	RJMP _0x75
; 0000 01A9        else cmp=-cmp;
_0x5F:
	MOVW R30,R4
	CALL __ANEGW1
_0x75:
	MOVW R4,R30
; 0000 01AA 
; 0000 01AB        if((adc[adc_min]<800) && (shl>250) && (adc_min>8 && adc_min<=15))  motor(0,0,0,0);
	MOVW R30,R10
	RCALL SUBOPT_0x9
	RCALL SUBOPT_0xA
	CPI  R30,LOW(0x320)
	LDI  R26,HIGH(0x320)
	CPC  R31,R26
	BRGE _0x64
	LDI  R30,LOW(250)
	LDI  R31,HIGH(250)
	CP   R30,R12
	CPC  R31,R13
	BRGE _0x64
	LDI  R30,LOW(8)
	LDI  R31,HIGH(8)
	CP   R30,R10
	CPC  R31,R11
	BRGE _0x65
	LDI  R30,LOW(15)
	LDI  R31,HIGH(15)
	CP   R30,R10
	CPC  R31,R11
	BRGE _0x66
_0x65:
	RJMP _0x64
_0x66:
	RJMP _0x67
_0x64:
	RJMP _0x63
_0x67:
	RJMP _0x76
; 0000 01AC 
; 0000 01AD 
; 0000 01AE        else if(adc[adc_min]<800)
_0x63:
	MOVW R30,R10
	RCALL SUBOPT_0x9
	RCALL SUBOPT_0xA
	CPI  R30,LOW(0x320)
	LDI  R26,HIGH(0x320)
	CPC  R31,R26
	BRGE _0x69
; 0000 01AF        {
; 0000 01B0          shift();
	RCALL _shift
; 0000 01B1        }
; 0000 01B2 
; 0000 01B3        else
	RJMP _0x6A
_0x69:
; 0000 01B4        {
; 0000 01B5 
; 0000 01B6        if(shb<200)
	RCALL SUBOPT_0xD
	CPI  R26,LOW(0xC8)
	LDI  R30,HIGH(0xC8)
	CPC  R27,R30
	BRGE _0x6B
; 0000 01B7        {
; 0000 01B8        motor(-255-e,-255+e,255+e,255-e);
	LDS  R26,_e
	LDS  R27,_e+1
	LDI  R30,LOW(65281)
	LDI  R31,HIGH(65281)
	SUB  R30,R26
	SBC  R31,R27
	RCALL SUBOPT_0x14
	SUBI R30,LOW(-65281)
	SBCI R31,HIGH(-65281)
	RCALL SUBOPT_0x14
	SUBI R30,LOW(-255)
	SBCI R31,HIGH(-255)
	ST   -Y,R31
	ST   -Y,R30
	LDS  R26,_e
	LDS  R27,_e+1
	LDI  R30,LOW(255)
	LDI  R31,HIGH(255)
	SUB  R30,R26
	SBC  R31,R27
	MOVW R26,R30
	RJMP _0x77
; 0000 01B9        }
; 0000 01BA        /*else if(shb>300)
; 0000 01BB        {
; 0000 01BC        motor(255-e,255+e,-255+e,-255-e);
; 0000 01BD        }
; 0000 01BE        else if(shl>135)
; 0000 01BF        {
; 0000 01C0        motor(255,-255,-255,255);
; 0000 01C1        }
; 0000 01C2        else if(shr>135)
; 0000 01C3        {
; 0000 01C4        motor(-255,255,255,-255);
; 0000 01C5        }    */
; 0000 01C6        else
_0x6B:
; 0000 01C7        motor(0,0,0,0);
_0x76:
	LDI  R30,LOW(0)
	LDI  R31,HIGH(0)
	ST   -Y,R31
	ST   -Y,R30
	RCALL SUBOPT_0x13
	RCALL SUBOPT_0x13
	LDI  R26,LOW(0)
	LDI  R27,0
_0x77:
	RCALL _motor
; 0000 01C8 
; 0000 01C9 
; 0000 01CA        }
_0x6A:
; 0000 01CB 
; 0000 01CC 
; 0000 01CD 
; 0000 01CE 
; 0000 01CF 
; 0000 01D0 
; 0000 01D1 
; 0000 01D2 
; 0000 01D3 
; 0000 01D4 
; 0000 01D5 
; 0000 01D6 
; 0000 01D7 
; 0000 01D8       }
	RJMP _0x5B
; 0000 01D9 }
_0x6D:
	RJMP _0x6D
; .FEND
	#ifndef __SLEEP_DEFINED__
	#define __SLEEP_DEFINED__
	.EQU __se_bit=0x40
	.EQU __sm_mask=0xB0
	.EQU __sm_powerdown=0x20
	.EQU __sm_powersave=0x30
	.EQU __sm_standby=0xA0
	.EQU __sm_ext_standby=0xB0
	.EQU __sm_adc_noise_red=0x10
	.SET power_ctrl_reg=mcucr
	#endif

	.DSEG

	.CSEG
__lcd_write_nibble_G100:
; .FSTART __lcd_write_nibble_G100
	ST   -Y,R26
	IN   R30,0x15
	ANDI R30,LOW(0xF)
	MOV  R26,R30
	LD   R30,Y
	ANDI R30,LOW(0xF0)
	OR   R30,R26
	OUT  0x15,R30
	__DELAY_USB 13
	SBI  0x15,2
	__DELAY_USB 13
	CBI  0x15,2
	__DELAY_USB 13
	RJMP _0x2020001
; .FEND
__lcd_write_data:
; .FSTART __lcd_write_data
	ST   -Y,R26
	LD   R26,Y
	RCALL __lcd_write_nibble_G100
    ld    r30,y
    swap  r30
    st    y,r30
	LD   R26,Y
	RCALL __lcd_write_nibble_G100
	__DELAY_USB 133
	RJMP _0x2020001
; .FEND
_lcd_gotoxy:
; .FSTART _lcd_gotoxy
	ST   -Y,R26
	LD   R30,Y
	LDI  R31,0
	SUBI R30,LOW(-__base_y_G100)
	SBCI R31,HIGH(-__base_y_G100)
	LD   R30,Z
	LDD  R26,Y+1
	ADD  R26,R30
	RCALL __lcd_write_data
	LDD  R30,Y+1
	STS  __lcd_x,R30
	LD   R30,Y
	STS  __lcd_y,R30
_0x2020002:
	ADIW R28,2
	RET
; .FEND
_lcd_clear:
; .FSTART _lcd_clear
	LDI  R26,LOW(2)
	RCALL SUBOPT_0x15
	LDI  R26,LOW(12)
	RCALL __lcd_write_data
	LDI  R26,LOW(1)
	RCALL SUBOPT_0x15
	LDI  R30,LOW(0)
	STS  __lcd_y,R30
	STS  __lcd_x,R30
	RET
; .FEND
_lcd_putchar:
; .FSTART _lcd_putchar
	ST   -Y,R26
	LD   R26,Y
	CPI  R26,LOW(0xA)
	BREQ _0x2000005
	LDS  R30,__lcd_maxx
	LDS  R26,__lcd_x
	CP   R26,R30
	BRLO _0x2000004
_0x2000005:
	LDI  R30,LOW(0)
	ST   -Y,R30
	LDS  R26,__lcd_y
	SUBI R26,-LOW(1)
	STS  __lcd_y,R26
	RCALL _lcd_gotoxy
	LD   R26,Y
	CPI  R26,LOW(0xA)
	BREQ _0x2020001
_0x2000004:
	LDS  R30,__lcd_x
	SUBI R30,-LOW(1)
	STS  __lcd_x,R30
	SBI  0x15,0
	LD   R26,Y
	RCALL __lcd_write_data
	CBI  0x15,0
	RJMP _0x2020001
; .FEND
_lcd_init:
; .FSTART _lcd_init
	ST   -Y,R26
	IN   R30,0x14
	ORI  R30,LOW(0xF0)
	OUT  0x14,R30
	SBI  0x14,2
	SBI  0x14,0
	SBI  0x14,1
	CBI  0x15,2
	CBI  0x15,0
	CBI  0x15,1
	LD   R30,Y
	STS  __lcd_maxx,R30
	SUBI R30,-LOW(128)
	__PUTB1MN __base_y_G100,2
	LD   R30,Y
	SUBI R30,-LOW(192)
	__PUTB1MN __base_y_G100,3
	LDI  R26,LOW(20)
	LDI  R27,0
	CALL _delay_ms
	RCALL SUBOPT_0x16
	RCALL SUBOPT_0x16
	RCALL SUBOPT_0x16
	LDI  R26,LOW(32)
	RCALL __lcd_write_nibble_G100
	RCALL SUBOPT_0x0
	LDI  R26,LOW(40)
	RCALL __lcd_write_data
	LDI  R26,LOW(4)
	RCALL __lcd_write_data
	LDI  R26,LOW(133)
	RCALL __lcd_write_data
	LDI  R26,LOW(6)
	RCALL __lcd_write_data
	RCALL _lcd_clear
_0x2020001:
	ADIW R28,1
	RET
; .FEND

	.DSEG
_adc:
	.BYTE 0x20
_shb:
	.BYTE 0x2
_shr:
	.BYTE 0x2
_e:
	.BYTE 0x2
__base_y_G100:
	.BYTE 0x4
__lcd_x:
	.BYTE 0x1
__lcd_y:
	.BYTE 0x1
__lcd_maxx:
	.BYTE 0x1

	.CSEG
;OPTIMIZER ADDED SUBROUTINE, CALLED 12 TIMES, CODE SIZE REDUCTION:19 WORDS
SUBOPT_0x0:
	__DELAY_USW 200
	RET

;OPTIMIZER ADDED SUBROUTINE, CALLED 3 TIMES, CODE SIZE REDUCTION:1 WORDS
SUBOPT_0x1:
	CALL _i2c_write
	RJMP SUBOPT_0x0

;OPTIMIZER ADDED SUBROUTINE, CALLED 3 TIMES, CODE SIZE REDUCTION:1 WORDS
SUBOPT_0x2:
	ST   -Y,R30
	LDI  R26,LOW(0)
	RJMP _lcd_gotoxy

;OPTIMIZER ADDED SUBROUTINE, CALLED 6 TIMES, CODE SIZE REDUCTION:52 WORDS
SUBOPT_0x3:
	LDI  R30,LOW(100)
	LDI  R31,HIGH(100)
	CALL __DIVW21
	MOVW R26,R30
	LDI  R30,LOW(10)
	LDI  R31,HIGH(10)
	CALL __MODW21
	SUBI R30,-LOW(48)
	MOV  R26,R30
	RJMP _lcd_putchar

;OPTIMIZER ADDED SUBROUTINE, CALLED 7 TIMES, CODE SIZE REDUCTION:63 WORDS
SUBOPT_0x4:
	LDI  R30,LOW(10)
	LDI  R31,HIGH(10)
	CALL __DIVW21
	MOVW R26,R30
	LDI  R30,LOW(10)
	LDI  R31,HIGH(10)
	CALL __MODW21
	SUBI R30,-LOW(48)
	MOV  R26,R30
	RJMP _lcd_putchar

;OPTIMIZER ADDED SUBROUTINE, CALLED 3 TIMES, CODE SIZE REDUCTION:5 WORDS
SUBOPT_0x5:
	MOVW R30,R4
	LDI  R26,LOW(65535)
	LDI  R27,HIGH(65535)
	CALL __MULW12
	MOVW R26,R30
	RET

;OPTIMIZER ADDED SUBROUTINE, CALLED 7 TIMES, CODE SIZE REDUCTION:21 WORDS
SUBOPT_0x6:
	CALL __MODW21
	SUBI R30,-LOW(48)
	MOV  R26,R30
	RJMP _lcd_putchar

;OPTIMIZER ADDED SUBROUTINE, CALLED 4 TIMES, CODE SIZE REDUCTION:6 WORDS
SUBOPT_0x7:
	LDI  R26,LOW(1)
	LDI  R27,HIGH(1)
	CALL __MANDW12
	CPI  R30,0
	RET

;OPTIMIZER ADDED SUBROUTINE, CALLED 3 TIMES, CODE SIZE REDUCTION:1 WORDS
SUBOPT_0x8:
	CALL __DIVW21
	RJMP SUBOPT_0x7

;OPTIMIZER ADDED SUBROUTINE, CALLED 9 TIMES, CODE SIZE REDUCTION:13 WORDS
SUBOPT_0x9:
	LDI  R26,LOW(_adc)
	LDI  R27,HIGH(_adc)
	LSL  R30
	ROL  R31
	RET

;OPTIMIZER ADDED SUBROUTINE, CALLED 7 TIMES, CODE SIZE REDUCTION:9 WORDS
SUBOPT_0xA:
	ADD  R26,R30
	ADC  R27,R31
	CALL __GETW1P
	RET

;OPTIMIZER ADDED SUBROUTINE, CALLED 6 TIMES, CODE SIZE REDUCTION:7 WORDS
SUBOPT_0xB:
	LDI  R30,LOW(10)
	LDI  R31,HIGH(10)
	RJMP SUBOPT_0x6

;OPTIMIZER ADDED SUBROUTINE, CALLED 3 TIMES, CODE SIZE REDUCTION:1 WORDS
SUBOPT_0xC:
	ST   -Y,R30
	LDI  R26,LOW(1)
	RJMP _lcd_gotoxy

;OPTIMIZER ADDED SUBROUTINE, CALLED 4 TIMES, CODE SIZE REDUCTION:3 WORDS
SUBOPT_0xD:
	LDS  R26,_shb
	LDS  R27,_shb+1
	RET

;OPTIMIZER ADDED SUBROUTINE, CALLED 3 TIMES, CODE SIZE REDUCTION:1 WORDS
SUBOPT_0xE:
	LDS  R26,_shr
	LDS  R27,_shr+1
	RET

;OPTIMIZER ADDED SUBROUTINE, CALLED 13 TIMES, CODE SIZE REDUCTION:21 WORDS
SUBOPT_0xF:
	LDI  R30,LOW(255)
	LDI  R31,HIGH(255)
	ST   -Y,R31
	ST   -Y,R30
	RET

;OPTIMIZER ADDED SUBROUTINE, CALLED 7 TIMES, CODE SIZE REDUCTION:9 WORDS
SUBOPT_0x10:
	LDI  R30,LOW(65408)
	LDI  R31,HIGH(65408)
	ST   -Y,R31
	ST   -Y,R30
	RET

;OPTIMIZER ADDED SUBROUTINE, CALLED 17 TIMES, CODE SIZE REDUCTION:29 WORDS
SUBOPT_0x11:
	LDI  R30,LOW(65281)
	LDI  R31,HIGH(65281)
	ST   -Y,R31
	ST   -Y,R30
	RET

;OPTIMIZER ADDED SUBROUTINE, CALLED 4 TIMES, CODE SIZE REDUCTION:3 WORDS
SUBOPT_0x12:
	LDI  R30,LOW(128)
	LDI  R31,HIGH(128)
	ST   -Y,R31
	ST   -Y,R30
	RET

;OPTIMIZER ADDED SUBROUTINE, CALLED 6 TIMES, CODE SIZE REDUCTION:7 WORDS
SUBOPT_0x13:
	LDI  R30,LOW(0)
	LDI  R31,HIGH(0)
	ST   -Y,R31
	ST   -Y,R30
	RET

;OPTIMIZER ADDED SUBROUTINE, CALLED 2 TIMES, CODE SIZE REDUCTION:1 WORDS
SUBOPT_0x14:
	ST   -Y,R31
	ST   -Y,R30
	LDS  R30,_e
	LDS  R31,_e+1
	RET

;OPTIMIZER ADDED SUBROUTINE, CALLED 2 TIMES, CODE SIZE REDUCTION:1 WORDS
SUBOPT_0x15:
	RCALL __lcd_write_data
	LDI  R26,LOW(3)
	LDI  R27,0
	JMP  _delay_ms

;OPTIMIZER ADDED SUBROUTINE, CALLED 3 TIMES, CODE SIZE REDUCTION:3 WORDS
SUBOPT_0x16:
	LDI  R26,LOW(48)
	RCALL __lcd_write_nibble_G100
	RJMP SUBOPT_0x0


	.CSEG
	.equ __sda_bit=1
	.equ __scl_bit=0
	.equ __i2c_port=0x18 ;PORTB
	.equ __i2c_dir=__i2c_port-1
	.equ __i2c_pin=__i2c_port-2

_i2c_init:
	cbi  __i2c_port,__scl_bit
	cbi  __i2c_port,__sda_bit
	sbi  __i2c_dir,__scl_bit
	cbi  __i2c_dir,__sda_bit
	rjmp __i2c_delay2
_i2c_start:
	cbi  __i2c_dir,__sda_bit
	cbi  __i2c_dir,__scl_bit
	clr  r30
	nop
	sbis __i2c_pin,__sda_bit
	ret
	sbis __i2c_pin,__scl_bit
	ret
	rcall __i2c_delay1
	sbi  __i2c_dir,__sda_bit
	rcall __i2c_delay1
	sbi  __i2c_dir,__scl_bit
	ldi  r30,1
__i2c_delay1:
	ldi  r22,13
	rjmp __i2c_delay2l
_i2c_stop:
	sbi  __i2c_dir,__sda_bit
	sbi  __i2c_dir,__scl_bit
	rcall __i2c_delay2
	cbi  __i2c_dir,__scl_bit
	rcall __i2c_delay1
	cbi  __i2c_dir,__sda_bit
__i2c_delay2:
	ldi  r22,27
__i2c_delay2l:
	dec  r22
	brne __i2c_delay2l
	ret
_i2c_read:
	ldi  r23,8
__i2c_read0:
	cbi  __i2c_dir,__scl_bit
	rcall __i2c_delay1
__i2c_read3:
	sbis __i2c_pin,__scl_bit
	rjmp __i2c_read3
	rcall __i2c_delay1
	clc
	sbic __i2c_pin,__sda_bit
	sec
	sbi  __i2c_dir,__scl_bit
	rcall __i2c_delay2
	rol  r30
	dec  r23
	brne __i2c_read0
	mov  r23,r26
	tst  r23
	brne __i2c_read1
	cbi  __i2c_dir,__sda_bit
	rjmp __i2c_read2
__i2c_read1:
	sbi  __i2c_dir,__sda_bit
__i2c_read2:
	rcall __i2c_delay1
	cbi  __i2c_dir,__scl_bit
	rcall __i2c_delay2
	sbi  __i2c_dir,__scl_bit
	rcall __i2c_delay1
	cbi  __i2c_dir,__sda_bit
	rjmp __i2c_delay1

_i2c_write:
	ldi  r23,8
__i2c_write0:
	lsl  r26
	brcc __i2c_write1
	cbi  __i2c_dir,__sda_bit
	rjmp __i2c_write2
__i2c_write1:
	sbi  __i2c_dir,__sda_bit
__i2c_write2:
	rcall __i2c_delay2
	cbi  __i2c_dir,__scl_bit
	rcall __i2c_delay1
__i2c_write3:
	sbis __i2c_pin,__scl_bit
	rjmp __i2c_write3
	rcall __i2c_delay1
	sbi  __i2c_dir,__scl_bit
	dec  r23
	brne __i2c_write0
	cbi  __i2c_dir,__sda_bit
	rcall __i2c_delay1
	cbi  __i2c_dir,__scl_bit
	rcall __i2c_delay2
	ldi  r30,1
	sbic __i2c_pin,__sda_bit
	clr  r30
	sbi  __i2c_dir,__scl_bit
	rjmp __i2c_delay1

_delay_ms:
	adiw r26,0
	breq __delay_ms1
__delay_ms0:
	__DELAY_USW 0x7D0
	wdr
	sbiw r26,1
	brne __delay_ms0
__delay_ms1:
	ret

__ANEGW1:
	NEG  R31
	NEG  R30
	SBCI R31,0
	RET

__MULW12U:
	MUL  R31,R26
	MOV  R31,R0
	MUL  R30,R27
	ADD  R31,R0
	MUL  R30,R26
	MOV  R30,R0
	ADD  R31,R1
	RET

__MULW12:
	RCALL __CHKSIGNW
	RCALL __MULW12U
	BRTC __MULW121
	RCALL __ANEGW1
__MULW121:
	RET

__DIVW21U:
	CLR  R0
	CLR  R1
	LDI  R25,16
__DIVW21U1:
	LSL  R26
	ROL  R27
	ROL  R0
	ROL  R1
	SUB  R0,R30
	SBC  R1,R31
	BRCC __DIVW21U2
	ADD  R0,R30
	ADC  R1,R31
	RJMP __DIVW21U3
__DIVW21U2:
	SBR  R26,1
__DIVW21U3:
	DEC  R25
	BRNE __DIVW21U1
	MOVW R30,R26
	MOVW R26,R0
	RET

__DIVW21:
	RCALL __CHKSIGNW
	RCALL __DIVW21U
	BRTC __DIVW211
	RCALL __ANEGW1
__DIVW211:
	RET

__MODW21:
	CLT
	SBRS R27,7
	RJMP __MODW211
	COM  R26
	COM  R27
	ADIW R26,1
	SET
__MODW211:
	SBRC R31,7
	RCALL __ANEGW1
	RCALL __DIVW21U
	MOVW R30,R26
	BRTC __MODW212
	RCALL __ANEGW1
__MODW212:
	RET

__MANDW12:
	CLT
	SBRS R31,7
	RJMP __MANDW121
	RCALL __ANEGW1
	SET
__MANDW121:
	AND  R30,R26
	AND  R31,R27
	BRTC __MANDW122
	RCALL __ANEGW1
__MANDW122:
	RET

__CHKSIGNW:
	CLT
	SBRS R31,7
	RJMP __CHKSW1
	RCALL __ANEGW1
	SET
__CHKSW1:
	SBRS R27,7
	RJMP __CHKSW2
	COM  R26
	COM  R27
	ADIW R26,1
	BLD  R0,0
	INC  R0
	BST  R0,0
__CHKSW2:
	RET

__GETW1P:
	LD   R30,X+
	LD   R31,X
	SBIW R26,1
	RET

__CPW02:
	CLR  R0
	CP   R0,R26
	CPC  R0,R27
	RET

;END OF CODE MARKER
__END_OF_CODE:
